

Microchip Technology PIC18 LITE Macro Assembler V1.35 build -356382666 
                                                                                               Wed Aug 26 21:59:47 2015

Microchip Technology Omniscient Code Generator v1.35 (Free mode) build 201507080246
     1                           	processor	18F45K20
     2                           	fnconf	rparam,??,?,0
     3                           	opt	pw 120
     4                           	opt	lm
     5                           	psect	cinit,global,reloc=2,class=CODE,delta=1
     6                           	psect	cstackCOMRAM,global,class=COMRAM,space=1,delta=1
     7                           	psect	text0,global,reloc=2,class=CODE,delta=1
     8                           	psect	text1,global,reloc=2,class=CODE,delta=1
     9                           	psect	text2,global,reloc=2,class=CODE,delta=1
    10                           	psect	text3,global,reloc=2,class=CODE,delta=1
    11                           	psect	intcodelo,global,reloc=2,class=CODE,delta=1
    12                           	psect	intcode,global,reloc=2,class=CODE,delta=1
    13                           	psect	intcode_body,global,reloc=2,class=CODE,delta=1
    14                           	psect	intsave_regs,global,class=BIGRAM,space=1,delta=1
    15                           	psect	rparam,global,class=COMRAM,space=1,delta=1
    16                           	psect	temp,global,ovrld,common,class=COMRAM,space=1,delta=1
    17  0000                     _ANSEL	set	3966
    18  0000                     _ANSELH	set	3967
    19  0000                     _INTCONbits	set	4082
    20  0000                     _OSCCON	set	4051
    21  0000                     _PORTA	set	3968
    22  0000                     _PORTC	set	3970
    23  0000                     _PORTD	set	3971
    24  0000                     _SSPBUF	set	4041
    25  0000                     _SSPCON1	set	4038
    26  0000                     _T0CON	set	4053
    27  0000                     _T0CONbits	set	4053
    28  0000                     _TMR0H	set	4055
    29  0000                     _TMR0L	set	4054
    30  0000                     _TRISA	set	3986
    31  0000                     _TRISB	set	3987
    32  0000                     _TRISC	set	3988
    33  0000                     _TRISD	set	3989
    34  0000                     _CKE	set	32318
    35  0000                     _GIE	set	32663
    36  0000                     _RBPU	set	32655
    37  0000                     _SMP	set	32319
    38  0000                     _SSPEN	set	32309
    39  0000                     _SSPIF	set	31987
    40  0000                     _SSPM0	set	32304
    41  0000                     _SSPM2	set	32306
    42  0000                     _WPUB0	set	31712
    43                           
    44                           ; #config settings
    45  0000                     
    46                           	psect	cinit
    47  00018E                     __pcinit:
    48                           	opt stack 0
    49  00018E                     start_initialization:
    50                           	opt stack 0
    51  00018E                     __initialization:
    52                           	opt stack 0
    53  00018E                     end_of_initialization:
    54                           	opt stack 0
    55  00018E                     __end_of__initialization:
    56                           	opt stack 0
    57  00018E  9021               	bcf	int$flags,0,c	;clear compiler interrupt flag (level 1)
    58  000190  9221               	bcf	int$flags,1,c	;clear compiler interrupt flag (level 2)
    59  000192  0100               	movlb	0
    60  000194  EFAF  F000         	goto	_main	;jump to C main() function
    61                           
    62                           	psect	cstackCOMRAM
    63  000001                     __pcstackCOMRAM:
    64                           	opt stack 0
    65  000001                     ??_low_isr:
    66  000001                     
    67                           ; 1 bytes @ 0x0
    68  000001                     	ds	17
    69  000012                     ??_high_isr:
    70                           
    71                           ; 0 bytes @ 0x11
    72  000012                     	ds	14
    73  000020                     SpiTxRx@data:
    74                           	opt stack 0
    75                           
    76                           ; 1 bytes @ 0x1F
    77  000020                     	ds	1
    78  000021                     
    79                           ; 0 bytes @ 0x20
    80 ;;
    81 ;;Main: autosize = 0, tempsize = 0, incstack = 0, save=0
    82 ;;
    83 ;; *************** function _main *****************
    84 ;; Defined at:
    85 ;;		line 32 in file "main.c"
    86 ;; Parameters:    Size  Location     Type
    87 ;;		None
    88 ;; Auto vars:     Size  Location     Type
    89 ;;		None
    90 ;; Return value:  Size  Location     Type
    91 ;;		None               void
    92 ;; Registers used:
    93 ;;		wreg, status,2, cstack
    94 ;; Tracked objects:
    95 ;;		On entry : 0/0
    96 ;;		On exit  : 0/0
    97 ;;		Unchanged: 0/0
    98 ;; Data sizes:     COMRAM   BANK0   BANK1   BANK2   BANK3   BANK4   BANK5
    99 ;;      Params:         0       0       0       0       0       0       0
   100 ;;      Locals:         0       0       0       0       0       0       0
   101 ;;      Temps:          0       0       0       0       0       0       0
   102 ;;      Totals:         0       0       0       0       0       0       0
   103 ;;Total ram usage:        0 bytes
   104 ;; Hardware stack levels required when called:    3
   105 ;; This function calls:
   106 ;;		_ConfigureOscillator
   107 ;;		_InitApp
   108 ;;		_SpiTxRx
   109 ;; This function is called by:
   110 ;;		Startup code after reset
   111 ;; This function uses a non-reentrant model
   112 ;;
   113                           
   114                           	psect	text0
   115  00015E                     __ptext0:
   116                           	opt stack 0
   117  00015E                     _main:
   118                           	opt stack 28
   119                           
   120                           ;main.c: 35: ConfigureOscillator();
   121                           
   122                           ;incstack = 0
   123  00015E  ECCC  F000         	call	_ConfigureOscillator	;wreg free
   124                           
   125                           ;main.c: 37: InitApp();
   126  000162  EC8B  F000         	call	_InitApp	;wreg free
   127  000166                     l23:
   128                           
   129                           ;main.c: 40: {
   130                           ;main.c: 41: PORTD = SpiTxRx(0xFF);
   131  000166  0EFF               	movlw	255
   132  000168  ECBF  F000         	call	_SpiTxRx
   133  00016C  6E83               	movwf	3971,c	;volatile
   134  00016E                     l720:
   135                           
   136                           ;main.c: 43: ;
   137                           ;main.c: 44: while (INTCONbits.TMR0IF == 0);
   138  00016E  A4F2               	btfss	intcon,2,c	;volatile
   139  000170  D7FE               	goto	l720
   140                           
   141                           ;main.c: 47: INTCONbits.TMR0IF = 0;
   142  000172  94F2               	bcf	intcon,2,c	;volatile
   143                           
   144                           ;main.c: 49: TMR0H = 0b00100000;
   145  000174  0E20               	movlw	32
   146  000176  6ED7               	movwf	4055,c	;volatile
   147                           
   148                           ;main.c: 50: TMR0L = 0b00000000;
   149  000178  0E00               	movlw	0
   150  00017A  6ED6               	movwf	4054,c	;volatile
   151  00017C  D7F4               	goto	l23
   152  00017E                     __end_of_main:
   153                           	opt stack 0
   154                           intcon	equ	0xFF2
   155                           
   156 ;; *************** function _SpiTxRx *****************
   157 ;; Defined at:
   158 ;;		line 73 in file "user.c"
   159 ;; Parameters:    Size  Location     Type
   160 ;;  data            1    wreg     unsigned char 
   161 ;; Auto vars:     Size  Location     Type
   162 ;;  data            1   31[COMRAM] unsigned char 
   163 ;; Return value:  Size  Location     Type
   164 ;;                  1    wreg      unsigned char 
   165 ;; Registers used:
   166 ;;		wreg, status,2
   167 ;; Tracked objects:
   168 ;;		On entry : 0/0
   169 ;;		On exit  : 0/0
   170 ;;		Unchanged: 0/0
   171 ;; Data sizes:     COMRAM   BANK0   BANK1   BANK2   BANK3   BANK4   BANK5
   172 ;;      Params:         0       0       0       0       0       0       0
   173 ;;      Locals:         1       0       0       0       0       0       0
   174 ;;      Temps:          0       0       0       0       0       0       0
   175 ;;      Totals:         1       0       0       0       0       0       0
   176 ;;Total ram usage:        1 bytes
   177 ;; Hardware stack levels used:    1
   178 ;; Hardware stack levels required when called:    2
   179 ;; This function calls:
   180 ;;		Nothing
   181 ;; This function is called by:
   182 ;;		_main
   183 ;; This function uses a non-reentrant model
   184 ;;
   185                           
   186                           	psect	text1
   187  00017E                     __ptext1:
   188                           	opt stack 0
   189  00017E                     _SpiTxRx:
   190                           	opt stack 28
   191                           
   192                           ;incstack = 0
   193                           ;SpiTxRx@data stored from wreg
   194  00017E  6E20               	movwf	SpiTxRx@data,c
   195                           
   196                           ;user.c: 75: SSPBUF = data;
   197  000180  C020  FFC9         	movff	SpiTxRx@data,4041	;volatile
   198  000184                     l89:
   199  000184  A69E               	btfss	3998,3,c	;volatile
   200  000186  D7FE               	goto	l89
   201                           
   202                           ;user.c: 77: SSPIF=0;
   203  000188  969E               	bcf	3998,3,c	;volatile
   204                           
   205                           ;user.c: 78: return SSPBUF;
   206  00018A  50C9               	movf	4041,w,c	;volatile
   207  00018C  0012               	return		;funcret
   208  00018E                     __end_of_SpiTxRx:
   209                           	opt stack 0
   210                           intcon	equ	0xFF2
   211                           
   212 ;; *************** function _InitApp *****************
   213 ;; Defined at:
   214 ;;		line 21 in file "user.c"
   215 ;; Parameters:    Size  Location     Type
   216 ;;		None
   217 ;; Auto vars:     Size  Location     Type
   218 ;;		None
   219 ;; Return value:  Size  Location     Type
   220 ;;		None               void
   221 ;; Registers used:
   222 ;;		wreg, status,2
   223 ;; Tracked objects:
   224 ;;		On entry : 0/0
   225 ;;		On exit  : 0/0
   226 ;;		Unchanged: 0/0
   227 ;; Data sizes:     COMRAM   BANK0   BANK1   BANK2   BANK3   BANK4   BANK5
   228 ;;      Params:         0       0       0       0       0       0       0
   229 ;;      Locals:         0       0       0       0       0       0       0
   230 ;;      Temps:          0       0       0       0       0       0       0
   231 ;;      Totals:         0       0       0       0       0       0       0
   232 ;;Total ram usage:        0 bytes
   233 ;; Hardware stack levels used:    1
   234 ;; Hardware stack levels required when called:    2
   235 ;; This function calls:
   236 ;;		Nothing
   237 ;; This function is called by:
   238 ;;		_main
   239 ;; This function uses a non-reentrant model
   240 ;;
   241                           
   242                           	psect	text2
   243  000116                     __ptext2:
   244                           	opt stack 0
   245  000116                     _InitApp:
   246                           	opt stack 28
   247                           
   248                           ;user.c: 29: TRISA=0b11011111;
   249                           
   250                           ;incstack = 0
   251  000116  0EDF               	movlw	223
   252  000118  6E92               	movwf	3986,c	;volatile
   253                           
   254                           ;user.c: 30: RBPU = 0;
   255  00011A  9EF1               	bcf	intcon2,7,c	;volatile
   256                           
   257                           ;user.c: 31: WPUB0 = 1;
   258  00011C  807C               	bsf	3964,0,c	;volatile
   259                           
   260                           ;user.c: 32: TRISB=0b11111111;
   261  00011E  6893               	setf	3987,c	;volatile
   262                           
   263                           ;user.c: 33: TRISC=0b11011111;
   264  000120  0EDF               	movlw	223
   265  000122  6E94               	movwf	3988,c	;volatile
   266                           
   267                           ;user.c: 34: TRISD=0b00000000;
   268  000124  0E00               	movlw	0
   269  000126  6E95               	movwf	3989,c	;volatile
   270                           
   271                           ;user.c: 35: PORTA=0;
   272  000128  0E00               	movlw	0
   273  00012A  6E80               	movwf	3968,c	;volatile
   274                           
   275                           ;user.c: 36: PORTC=0;
   276  00012C  0E00               	movlw	0
   277  00012E  6E82               	movwf	3970,c	;volatile
   278                           
   279                           ;user.c: 37: PORTD=0;
   280  000130  0E00               	movlw	0
   281  000132  6E83               	movwf	3971,c	;volatile
   282                           
   283                           ;user.c: 40: ANSEL = 0;
   284  000134  0E00               	movlw	0
   285  000136  6E7E               	movwf	3966,c	;volatile
   286                           
   287                           ;user.c: 41: ANSELH = 0;
   288  000138  0E00               	movlw	0
   289  00013A  6E7F               	movwf	3967,c	;volatile
   290                           
   291                           ;user.c: 51: SMP=0;
   292  00013C  9EC7               	bcf	4039,7,c	;volatile
   293                           
   294                           ;user.c: 52: CKE=1;
   295  00013E  8CC7               	bsf	4039,6,c	;volatile
   296                           
   297                           ;user.c: 53: SSPCON1=0;
   298  000140  0E00               	movlw	0
   299  000142  6EC6               	movwf	4038,c	;volatile
   300                           
   301                           ;user.c: 56: SSPEN=1;
   302  000144  8AC6               	bsf	4038,5,c	;volatile
   303                           
   304                           ;user.c: 59: SSPM0=1;
   305  000146  80C6               	bsf	4038,0,c	;volatile
   306                           
   307                           ;user.c: 60: SSPM2=1;
   308  000148  84C6               	bsf	4038,2,c	;volatile
   309                           
   310                           ;user.c: 63: GIE=0;
   311  00014A  9EF2               	bcf	intcon,7,c	;volatile
   312                           
   313                           ;user.c: 65: INTCONbits.TMR0IF = 0;
   314  00014C  94F2               	bcf	intcon,2,c	;volatile
   315                           
   316                           ;user.c: 66: T0CON = 0b00000001;
   317  00014E  0E01               	movlw	1
   318  000150  6ED5               	movwf	4053,c	;volatile
   319                           
   320                           ;user.c: 67: TMR0H = 0;
   321  000152  0E00               	movlw	0
   322  000154  6ED7               	movwf	4055,c	;volatile
   323                           
   324                           ;user.c: 68: TMR0L = 0;
   325  000156  0E00               	movlw	0
   326  000158  6ED6               	movwf	4054,c	;volatile
   327                           
   328                           ;user.c: 69: T0CONbits.TMR0ON = 1;
   329  00015A  8ED5               	bsf	4053,7,c	;volatile
   330  00015C  0012               	return		;funcret
   331  00015E                     __end_of_InitApp:
   332                           	opt stack 0
   333                           intcon	equ	0xFF2
   334                           intcon2	equ	0xFF1
   335                           
   336 ;; *************** function _ConfigureOscillator *****************
   337 ;; Defined at:
   338 ;;		line 24 in file "system.c"
   339 ;; Parameters:    Size  Location     Type
   340 ;;		None
   341 ;; Auto vars:     Size  Location     Type
   342 ;;		None
   343 ;; Return value:  Size  Location     Type
   344 ;;		None               void
   345 ;; Registers used:
   346 ;;		wreg, status,2
   347 ;; Tracked objects:
   348 ;;		On entry : 0/0
   349 ;;		On exit  : 0/0
   350 ;;		Unchanged: 0/0
   351 ;; Data sizes:     COMRAM   BANK0   BANK1   BANK2   BANK3   BANK4   BANK5
   352 ;;      Params:         0       0       0       0       0       0       0
   353 ;;      Locals:         0       0       0       0       0       0       0
   354 ;;      Temps:          0       0       0       0       0       0       0
   355 ;;      Totals:         0       0       0       0       0       0       0
   356 ;;Total ram usage:        0 bytes
   357 ;; Hardware stack levels used:    1
   358 ;; Hardware stack levels required when called:    2
   359 ;; This function calls:
   360 ;;		Nothing
   361 ;; This function is called by:
   362 ;;		_main
   363 ;; This function uses a non-reentrant model
   364 ;;
   365                           
   366                           	psect	text3
   367  000198                     __ptext3:
   368                           	opt stack 0
   369  000198                     _ConfigureOscillator:
   370                           	opt stack 28
   371                           
   372                           ;system.c: 25: OSCCON=0b01011100;
   373                           
   374                           ;incstack = 0
   375  000198  0E5C               	movlw	92
   376  00019A  6ED3               	movwf	4051,c	;volatile
   377  00019C  0012               	return		;funcret
   378  00019E                     __end_of_ConfigureOscillator:
   379                           	opt stack 0
   380                           intcon	equ	0xFF2
   381                           intcon2	equ	0xFF1
   382                           
   383 ;; *************** function _low_isr *****************
   384 ;; Defined at:
   385 ;;		line 67 in file "interrupts.c"
   386 ;; Parameters:    Size  Location     Type
   387 ;;		None
   388 ;; Auto vars:     Size  Location     Type
   389 ;;		None
   390 ;; Return value:  Size  Location     Type
   391 ;;		None               void
   392 ;; Registers used:
   393 ;;		None
   394 ;; Tracked objects:
   395 ;;		On entry : 0/0
   396 ;;		On exit  : 0/0
   397 ;;		Unchanged: 0/0
   398 ;; Data sizes:     COMRAM   BANK0   BANK1   BANK2   BANK3   BANK4   BANK5
   399 ;;      Params:         0       0       0       0       0       0       0
   400 ;;      Locals:         0       0       0       0       0       0       0
   401 ;;      Temps:         17       0       0       0       0       0       0
   402 ;;      Totals:        17       0       0       0       0       0       0
   403 ;;Total ram usage:       17 bytes
   404 ;; Hardware stack levels used:    1
   405 ;; Hardware stack levels required when called:    1
   406 ;; This function calls:
   407 ;;		Nothing
   408 ;; This function is called by:
   409 ;;		Interrupt level 1
   410 ;; This function uses a non-reentrant model
   411 ;;
   412                           
   413                           	psect	intcodelo
   414  000018                     __pintcodelo:
   415                           	opt stack 0
   416  000018                     _low_isr:
   417                           	opt stack 28
   418                           
   419                           ;incstack = 0
   420  000018  8021               	bsf	btemp,0,c	;set compiler interrupt flag (level 1)
   421  00001A  CFD8 F001          	movff	status,??_low_isr
   422  00001E  CFE8 F002          	movff	wreg,??_low_isr+1
   423  000022  CFE0 F003          	movff	bsr,??_low_isr+2
   424  000026  CFFA F004          	movff	pclath,??_low_isr+3
   425  00002A  CFFB F005          	movff	pclatu,??_low_isr+4
   426  00002E  CFE9 F006          	movff	fsr0l,??_low_isr+5
   427  000032  CFEA F007          	movff	fsr0h,??_low_isr+6
   428  000036  CFE1 F008          	movff	fsr1l,??_low_isr+7
   429  00003A  CFE2 F009          	movff	fsr1h,??_low_isr+8
   430  00003E  CFD9 F00A          	movff	fsr2l,??_low_isr+9
   431  000042  CFDA F00B          	movff	fsr2h,??_low_isr+10
   432  000046  CFF3 F00C          	movff	prodl,??_low_isr+11
   433  00004A  CFF4 F00D          	movff	prodh,??_low_isr+12
   434  00004E  CFF6 F00E          	movff	tblptrl,??_low_isr+13
   435  000052  CFF7 F00F          	movff	tblptrh,??_low_isr+14
   436  000056  CFF8 F010          	movff	tblptru,??_low_isr+15
   437  00005A  CFF5 F011          	movff	tablat,??_low_isr+16
   438  00005E  C011  FFF5         	movff	??_low_isr+16,tablat
   439  000062  C010  FFF8         	movff	??_low_isr+15,tblptru
   440  000066  C00F  FFF7         	movff	??_low_isr+14,tblptrh
   441  00006A  C00E  FFF6         	movff	??_low_isr+13,tblptrl
   442  00006E  C00D  FFF4         	movff	??_low_isr+12,prodh
   443  000072  C00C  FFF3         	movff	??_low_isr+11,prodl
   444  000076  C00B  FFDA         	movff	??_low_isr+10,fsr2h
   445  00007A  C00A  FFD9         	movff	??_low_isr+9,fsr2l
   446  00007E  C009  FFE2         	movff	??_low_isr+8,fsr1h
   447  000082  C008  FFE1         	movff	??_low_isr+7,fsr1l
   448  000086  C007  FFEA         	movff	??_low_isr+6,fsr0h
   449  00008A  C006  FFE9         	movff	??_low_isr+5,fsr0l
   450  00008E  C005  FFFB         	movff	??_low_isr+4,pclatu
   451  000092  C004  FFFA         	movff	??_low_isr+3,pclath
   452  000096  C003  FFE0         	movff	??_low_isr+2,bsr
   453  00009A  C002  FFE8         	movff	??_low_isr+1,wreg
   454  00009E  C001  FFD8         	movff	??_low_isr,status
   455  0000A2  9021               	bcf	btemp,0,c	;clear compiler interrupt flag (level 1)
   456  0000A4  0010               	retfie	
   457  0000A6                     __end_of_low_isr:
   458                           	opt stack 0
   459                           pclatu	equ	0xFFB
   460                           pclath	equ	0xFFA
   461                           tblptru	equ	0xFF8
   462                           tblptrh	equ	0xFF7
   463                           tblptrl	equ	0xFF6
   464                           tablat	equ	0xFF5
   465                           prodh	equ	0xFF4
   466                           prodl	equ	0xFF3
   467                           intcon	equ	0xFF2
   468                           intcon2	equ	0xFF1
   469                           fsr0h	equ	0xFEA
   470                           fsr0l	equ	0xFE9
   471                           wreg	equ	0xFE8
   472                           fsr1h	equ	0xFE2
   473                           fsr1l	equ	0xFE1
   474                           bsr	equ	0xFE0
   475                           fsr2h	equ	0xFDA
   476                           fsr2l	equ	0xFD9
   477                           status	equ	0xFD8
   478                           
   479 ;; *************** function _high_isr *****************
   480 ;; Defined at:
   481 ;;		line 27 in file "interrupts.c"
   482 ;; Parameters:    Size  Location     Type
   483 ;;		None
   484 ;; Auto vars:     Size  Location     Type
   485 ;;		None
   486 ;; Return value:  Size  Location     Type
   487 ;;		None               void
   488 ;; Registers used:
   489 ;;		None
   490 ;; Tracked objects:
   491 ;;		On entry : 0/0
   492 ;;		On exit  : 0/0
   493 ;;		Unchanged: 0/0
   494 ;; Data sizes:     COMRAM   BANK0   BANK1   BANK2   BANK3   BANK4   BANK5
   495 ;;      Params:         0       0       0       0       0       0       0
   496 ;;      Locals:         0       0       0       0       0       0       0
   497 ;;      Temps:         14       0       0       0       0       0       0
   498 ;;      Totals:        14       0       0       0       0       0       0
   499 ;;Total ram usage:       14 bytes
   500 ;; Hardware stack levels used:    1
   501 ;; This function calls:
   502 ;;		Nothing
   503 ;; This function is called by:
   504 ;;		Interrupt level 2
   505 ;; This function uses a non-reentrant model
   506 ;;
   507                           
   508                           	psect	intcode
   509  000008                     __pintcode:
   510                           	opt stack 0
   511  000008                     _high_isr:
   512                           	opt stack 28
   513                           
   514                           ;incstack = 0
   515  000008  8221               	bsf	btemp,1,c	;set compiler interrupt flag (level 2)
   516  00000A  CFFA F012          	movff	pclath,??_high_isr
   517  00000E  CFFB F013          	movff	pclatu,??_high_isr+1
   518  000012  EF55  F000         	goto	int_func
   519                           pclatu	equ	0xFFB
   520                           pclath	equ	0xFFA
   521                           tblptru	equ	0xFF8
   522                           tblptrh	equ	0xFF7
   523                           tblptrl	equ	0xFF6
   524                           tablat	equ	0xFF5
   525                           prodh	equ	0xFF4
   526                           prodl	equ	0xFF3
   527                           intcon	equ	0xFF2
   528                           intcon2	equ	0xFF1
   529                           fsr0h	equ	0xFEA
   530                           fsr0l	equ	0xFE9
   531                           wreg	equ	0xFE8
   532                           fsr1h	equ	0xFE2
   533                           fsr1l	equ	0xFE1
   534                           bsr	equ	0xFE0
   535                           fsr2h	equ	0xFDA
   536                           fsr2l	equ	0xFD9
   537                           status	equ	0xFD8
   538                           
   539                           	psect	intcode_body
   540  0000AA                     __pintcode_body:
   541                           	opt stack 28
   542  0000AA                     int_func:
   543                           	opt stack 28
   544  0000AA  CFE9 F014          	movff	fsr0l,??_high_isr+2
   545  0000AE  CFEA F015          	movff	fsr0h,??_high_isr+3
   546  0000B2  CFE1 F016          	movff	fsr1l,??_high_isr+4
   547  0000B6  CFE2 F017          	movff	fsr1h,??_high_isr+5
   548  0000BA  CFD9 F018          	movff	fsr2l,??_high_isr+6
   549  0000BE  CFDA F019          	movff	fsr2h,??_high_isr+7
   550  0000C2  CFF3 F01A          	movff	prodl,??_high_isr+8
   551  0000C6  CFF4 F01B          	movff	prodh,??_high_isr+9
   552  0000CA  CFF6 F01C          	movff	tblptrl,??_high_isr+10
   553  0000CE  CFF7 F01D          	movff	tblptrh,??_high_isr+11
   554  0000D2  CFF8 F01E          	movff	tblptru,??_high_isr+12
   555  0000D6  CFF5 F01F          	movff	tablat,??_high_isr+13
   556  0000DA  C01F  FFF5         	movff	??_high_isr+13,tablat
   557  0000DE  C01E  FFF8         	movff	??_high_isr+12,tblptru
   558  0000E2  C01D  FFF7         	movff	??_high_isr+11,tblptrh
   559  0000E6  C01C  FFF6         	movff	??_high_isr+10,tblptrl
   560  0000EA  C01B  FFF4         	movff	??_high_isr+9,prodh
   561  0000EE  C01A  FFF3         	movff	??_high_isr+8,prodl
   562  0000F2  C019  FFDA         	movff	??_high_isr+7,fsr2h
   563  0000F6  C018  FFD9         	movff	??_high_isr+6,fsr2l
   564  0000FA  C017  FFE2         	movff	??_high_isr+5,fsr1h
   565  0000FE  C016  FFE1         	movff	??_high_isr+4,fsr1l
   566  000102  C015  FFEA         	movff	??_high_isr+3,fsr0h
   567  000106  C014  FFE9         	movff	??_high_isr+2,fsr0l
   568  00010A  C013  FFFB         	movff	??_high_isr+1,pclatu
   569  00010E  C012  FFFA         	movff	??_high_isr,pclath
   570  000112  9221               	bcf	btemp,1,c	;clear compiler interrupt flag (level 2)
   571  000114  0011               	retfie		f
   572  000116                     __end_of_high_isr:
   573                           	opt stack 0
   574  0000                     pclatu	equ	0xFFB
   575                           pclath	equ	0xFFA
   576                           tblptru	equ	0xFF8
   577                           tblptrh	equ	0xFF7
   578                           tblptrl	equ	0xFF6
   579                           tablat	equ	0xFF5
   580                           prodh	equ	0xFF4
   581                           prodl	equ	0xFF3
   582                           intcon	equ	0xFF2
   583                           intcon2	equ	0xFF1
   584                           fsr0h	equ	0xFEA
   585                           fsr0l	equ	0xFE9
   586                           wreg	equ	0xFE8
   587                           fsr1h	equ	0xFE2
   588                           fsr1l	equ	0xFE1
   589                           bsr	equ	0xFE0
   590                           fsr2h	equ	0xFDA
   591                           fsr2l	equ	0xFD9
   592                           status	equ	0xFD8
   593                           pclatu	equ	0xFFB
   594                           pclath	equ	0xFFA
   595                           tblptru	equ	0xFF8
   596                           tblptrh	equ	0xFF7
   597                           tblptrl	equ	0xFF6
   598                           tablat	equ	0xFF5
   599                           prodh	equ	0xFF4
   600                           prodl	equ	0xFF3
   601                           intcon	equ	0xFF2
   602                           intcon2	equ	0xFF1
   603                           fsr0h	equ	0xFEA
   604                           fsr0l	equ	0xFE9
   605                           wreg	equ	0xFE8
   606                           fsr1h	equ	0xFE2
   607                           fsr1l	equ	0xFE1
   608                           bsr	equ	0xFE0
   609                           fsr2h	equ	0xFDA
   610                           fsr2l	equ	0xFD9
   611                           status	equ	0xFD8
   612                           
   613                           	psect	rparam
   614  0000                     pclatu	equ	0xFFB
   615                           pclath	equ	0xFFA
   616                           tblptru	equ	0xFF8
   617                           tblptrh	equ	0xFF7
   618                           tblptrl	equ	0xFF6
   619                           tablat	equ	0xFF5
   620                           prodh	equ	0xFF4
   621                           prodl	equ	0xFF3
   622                           intcon	equ	0xFF2
   623                           intcon2	equ	0xFF1
   624                           fsr0h	equ	0xFEA
   625                           fsr0l	equ	0xFE9
   626                           wreg	equ	0xFE8
   627                           fsr1h	equ	0xFE2
   628                           fsr1l	equ	0xFE1
   629                           bsr	equ	0xFE0
   630                           fsr2h	equ	0xFDA
   631                           fsr2l	equ	0xFD9
   632                           status	equ	0xFD8
   633                           
   634                           	psect	temp
   635  000021                     btemp:
   636                           	opt stack 0
   637  000021                     	ds	1
   638  0000                     int$flags	set	btemp
   639                           pclatu	equ	0xFFB
   640                           pclath	equ	0xFFA
   641                           tblptru	equ	0xFF8
   642                           tblptrh	equ	0xFF7
   643                           tblptrl	equ	0xFF6
   644                           tablat	equ	0xFF5
   645                           prodh	equ	0xFF4
   646                           prodl	equ	0xFF3
   647                           intcon	equ	0xFF2
   648                           intcon2	equ	0xFF1
   649                           fsr0h	equ	0xFEA
   650                           fsr0l	equ	0xFE9
   651                           wreg	equ	0xFE8
   652                           fsr1h	equ	0xFE2
   653                           fsr1l	equ	0xFE1
   654                           bsr	equ	0xFE0
   655                           fsr2h	equ	0xFDA
   656                           fsr2l	equ	0xFD9
   657                           status	equ	0xFD8


Data Sizes:
    Strings     0
    Constant    0
    Data        0
    BSS         0
    Persistent  0
    Stack       0

Auto Spaces:
    Space          Size  Autos    Used
    COMRAM           94     32      32
    BANK0           160      0       0
    BANK1           256      0       0
    BANK2           256      0       0
    BANK3           256      0       0
    BANK4           256      0       0
    BANK5           256      0       0

Pointer List with Targets:

    None.

Critical Paths under _main in COMRAM

    _main->_SpiTxRx

Critical Paths under _high_isr in COMRAM

    None.

Critical Paths under _low_isr in COMRAM

    None.

Critical Paths under _main in BANK0

    None.

Critical Paths under _high_isr in BANK0

    None.

Critical Paths under _low_isr in BANK0

    None.

Critical Paths under _main in BANK1

    None.

Critical Paths under _high_isr in BANK1

    None.

Critical Paths under _low_isr in BANK1

    None.

Critical Paths under _main in BANK2

    None.

Critical Paths under _high_isr in BANK2

    None.

Critical Paths under _low_isr in BANK2

    None.

Critical Paths under _main in BANK3

    None.

Critical Paths under _high_isr in BANK3

    None.

Critical Paths under _low_isr in BANK3

    None.

Critical Paths under _main in BANK4

    None.

Critical Paths under _high_isr in BANK4

    None.

Critical Paths under _low_isr in BANK4

    None.

Critical Paths under _main in BANK5

    None.

Critical Paths under _high_isr in BANK5

    None.

Critical Paths under _low_isr in BANK5

    None.

Call Graph Tables:

 ---------------------------------------------------------------------------------
 (Depth) Function   	        Calls       Base Space   Used Autos Params    Refs
 ---------------------------------------------------------------------------------
 (0) _main                                                 0     0      0      15
                _ConfigureOscillator
                            _InitApp
                            _SpiTxRx
 ---------------------------------------------------------------------------------
 (1) _SpiTxRx                                              1     1      0      15
                                             31 COMRAM     1     1      0
 ---------------------------------------------------------------------------------
 (1) _InitApp                                              0     0      0       0
 ---------------------------------------------------------------------------------
 (1) _ConfigureOscillator                                  0     0      0       0
 ---------------------------------------------------------------------------------
 Estimated maximum stack depth 1
 ---------------------------------------------------------------------------------
 (Depth) Function   	        Calls       Base Space   Used Autos Params    Refs
 ---------------------------------------------------------------------------------
 (2) _low_isr                                             17    17      0       0
                                              0 COMRAM    17    17      0
 ---------------------------------------------------------------------------------
 Estimated maximum stack depth 2
 ---------------------------------------------------------------------------------
 (Depth) Function   	        Calls       Base Space   Used Autos Params    Refs
 ---------------------------------------------------------------------------------
 (3) _high_isr                                            14    14      0       0
                                             17 COMRAM    14    14      0
 ---------------------------------------------------------------------------------
 Estimated maximum stack depth 3
 ---------------------------------------------------------------------------------

 Call Graph Graphs:

 _main (ROOT)
   _ConfigureOscillator
   _InitApp
   _SpiTxRx

 _low_isr (ROOT)

 _high_isr (ROOT)

 Address spaces:
Name               Size   Autos  Total    Cost      Usage
BITCOMRAM           5E      0       0       0        0.0%
EEDATA             100      0       0       0        0.0%
NULL                 0      0       0       0        0.0%
CODE                 0      0       0       0        0.0%
COMRAM              5E     20      20       1       34.0%
STACK                0      0       0       2        0.0%
DATA                 0      0       0       3        0.0%
BITBANK0            A0      0       0       4        0.0%
BANK0               A0      0       0       5        0.0%
BITBANK1           100      0       0       6        0.0%
BANK1              100      0       0       7        0.0%
BITBANK2           100      0       0       8        0.0%
BANK2              100      0       0       9        0.0%
BITBANK3           100      0       0      10        0.0%
BANK3              100      0       0      11        0.0%
BITBANK4           100      0       0      12        0.0%
BANK4              100      0       0      13        0.0%
BANK5              100      0       0      14        0.0%
ABS                  0      0       0      15        0.0%
BITBANK5           100      0       0      16        0.0%
BIGRAM             5FF      0       0      17        0.0%
BITSFR               0      0       0      40        0.0%
SFR                  0      0       0      40        0.0%


Microchip Technology PIC18 Macro Assembler V1.35 build -356382666 
Symbol Table                                                                                   Wed Aug 26 21:59:47 2015

                          l23 0166                            l89 0184                            bsr 000FE0  
                __CFG_CP0$OFF 000000                  __CFG_CP1$OFF 000000                  __CFG_CP2$OFF 000000  
                __CFG_CP3$OFF 000000                           l720 016E                           _CKE 007E3E  
                         _GIE 007F97                  __CFG_CPB$OFF 000000                  __CFG_CPD$OFF 000000  
                         _SMP 007E3F                  __CFG_BORV$30 000000                           wreg 000FE8  
                __CFG_LVP$OFF 000000                          _RBPU 007F8F                          _main 015E  
                        fsr0h 000FEA                          fsr1h 000FE2                          fsr0l 000FE9  
                        fsr2h 000FDA                          fsr1l 000FE1                          fsr2l 000FD9  
                        btemp 0021                          pclat 000FFA                          prodh 000FF4  
                        prodl 000FF3                          start 00A6                 __CFG_IESO$OFF 000000  
               __CFG_MCLRE$ON 000000                  ___param_bank 000010               __end_of_InitApp 015E  
             __end_of_SpiTxRx 018E                         ?_main 0001                         _ANSEL 000F7E  
                       _T0CON 000FD5                         _TMR0H 000FD7                         _TMR0L 000FD6  
                       _PORTA 000F80                         _PORTC 000F82                         _PORTD 000F83  
                       _SSPM0 007E30                         _SSPM2 007E32                         _TRISA 000F92  
                       _TRISB 000F93                         _TRISC 000F94                         _TRISD 000F95  
                       _SSPIF 007CF3                         _SSPEN 007E35                         _WPUB0 007BE0  
         _ConfigureOscillator 0198                 __CFG_PWRT$OFF 000000                 __CFG_WRT0$OFF 000000  
               __CFG_WRT1$OFF 000000                 __CFG_WRT2$OFF 000000                 __CFG_WRT3$OFF 000000  
              __CFG_EBTR0$OFF 000000                __CFG_FCMEN$OFF 000000                __CFG_EBTR1$OFF 000000  
              __CFG_EBTR2$OFF 000000                __CFG_EBTR3$OFF 000000                 __CFG_WRTB$OFF 000000  
               __CFG_WRTC$OFF 000000                 __CFG_WRTD$OFF 000000                __CFG_EBTRB$OFF 000000  
             __end_of_low_isr 00A6                __CFG_BOREN$OFF 000000                         tablat 000FF5  
                       status 000FD8                __CFG_HFOFST$ON 000000          ?_ConfigureOscillator 0001  
             __initialization 018E                  __end_of_main 017E                        ??_main 0021  
               __activetblptr 000000                        _ANSELH 000F7F                __CFG_WDTEN$OFF 000000  
                      _OSCCON 000FD3                        _SSPBUF 000FC9                     ??_InitApp 0020  
       ??_ConfigureOscillator 0020                __CFG_XINST$OFF 000000                     ??_SpiTxRx 0020  
            __end_of_high_isr 0116                __CFG_STVREN$ON 000000                     ??_low_isr 0001  
                      tblptrh 000FF7                        tblptrl 000FF6                        tblptru 000FF8  
                  __accesstop 0060       __end_of__initialization 018E               __CFG_PBADEN$OFF 000000  
               ___rparam_used 000001                __pcstackCOMRAM 0001                       _SSPCON1 000FC6  
                   ?_high_isr 0001                       _InitApp 0116                       __Hparam 0000  
                 SpiTxRx@data 0020                       __Lparam 0000                       _SpiTxRx 017E  
                     __pcinit 018E                       __ramtop 0600                       __ptext0 015E  
                     __ptext1 017E                       __ptext2 0116                       __ptext3 0198  
                   _T0CONbits 000FD5                       _low_isr 0018                    ??_high_isr 0012  
              __pintcode_body 00AA          end_of_initialization 018E                       int_func 00AA  
 __end_of_ConfigureOscillator 019E           start_initialization 018E              __CFG_LPT1OSC$OFF 000000  
           __size_of_high_isr 010E                      ?_InitApp 0001             __CFG_CCP2MX$PORTC 000000  
                    ?_SpiTxRx 0001                     __pintcode 0008                   __pintcodelo 0018  
                    ?_low_isr 0001              __CFG_WDTPS$32768 000000              __size_of_InitApp 0048  
                    __Hrparam 0000                      __Lrparam 0000              __size_of_SpiTxRx 0010  
            __size_of_low_isr 008E                      _high_isr 0008                 __size_of_main 0020  
__size_of_ConfigureOscillator 0006                      int$flags 0021                    _INTCONbits 000FF2  
                    intlevel1 0000                      intlevel2 0000             __CFG_FOSC$INTIO67 000000  
